target datalayout = "e-m:e-p270:32:32-p271:32:32-p272:64:64-i64:64-i128:128-f80:128-n8:16:32:64-S128"
target triple = "x86_64-pc-linux-gnu"

%struct.AVCodecContext = type { ptr, i32, i32, ptr, i32, i32, ptr, ptr, ptr, i64, i32, i32, ptr, i32, %struct.AVRational, %struct.AVRational, %struct.AVRational, i32, i32, i32, i32, i32, %struct.AVRational, i32, i32, i32, i32, i32, i32, i32, i32, i32, i32, i32, ptr, ptr, i32, float, float, float, float, float, float, float, float, float, i32, i32, i32, i32, i32, i32, i32, i32, i32, i32, i32, i32, ptr, ptr, ptr, i32, i32, i32, i32, i32, i32, i32, i32, i32, i32, %struct.AVChannelLayout, i32, i32, i32, i32, i32, i32, i32, i32, ptr, i32, i32, i32, float, float, i32, i32, i32, i32, i32, ptr, i64, i64, float, float, i32, i32, ptr, ptr, i32, i32, i32, i32, i32, ptr, ptr, ptr, ptr, i32, i32, [8 x i64], i32, i32, i32, i32, i32, i32, i32, ptr, ptr, i32, i32, i32, i32, i32, i32, i32, i32, i32, i32, ptr, ptr, i32, i32, ptr, ptr, ptr, ptr, i32, i32, i64, i32, i32, i64, ptr, i64, ptr, i32, ptr, i32 }
%struct.AVRational = type { i32, i32 }
%struct.AVChannelLayout = type { i32, i32, %union.anon.0, ptr }
%union.anon.0 = type { i64 }
%struct.VmdVideoContext = type { ptr, ptr, ptr, i32, [1024 x i8], ptr, i32, i32, i32 }

@.str.2 = private unnamed_addr constant [31 x i8] c"expected extradata size of %d\0A\00", align 1

; Function Attrs: cold nounwind optsize uwtable
define internal i32 @vmdvideo_decode_init(ptr noundef %0) #0 {
  %2 = alloca i32, align 4
  %3 = alloca ptr, align 8
  %4 = alloca ptr, align 8
  %5 = alloca i32, align 4
  %6 = alloca ptr, align 8
  %7 = alloca i32, align 4
  %8 = alloca i8, align 1
  %9 = alloca i8, align 1
  %10 = alloca i8, align 1
  %11 = alloca ptr, align 8
  %12 = alloca ptr, align 8
  %13 = alloca i32, align 4
  store ptr %0, ptr %3, align 8, !tbaa !4
  call void @llvm.lifetime.start.p0(i64 8, ptr %4) #8
  %14 = load ptr, ptr %3, align 8, !tbaa !4
  %15 = getelementptr inbounds nuw %struct.AVCodecContext, ptr %14, i32 0, i32 6
  %16 = load ptr, ptr %15, align 8, !tbaa !9
  store ptr %16, ptr %4, align 8, !tbaa !29
  call void @llvm.lifetime.start.p0(i64 4, ptr %5) #8
  call void @llvm.lifetime.start.p0(i64 8, ptr %6) #8
  call void @llvm.lifetime.start.p0(i64 4, ptr %7) #8
  store i32 0, ptr %7, align 4, !tbaa !31
  call void @llvm.lifetime.start.p0(i64 1, ptr %8) #8
  call void @llvm.lifetime.start.p0(i64 1, ptr %9) #8
  call void @llvm.lifetime.start.p0(i64 1, ptr %10) #8
  call void @llvm.lifetime.start.p0(i64 8, ptr %11) #8
  call void @llvm.lifetime.start.p0(i64 8, ptr %12) #8
  %17 = load ptr, ptr %3, align 8, !tbaa !4
  %18 = load ptr, ptr %4, align 8, !tbaa !29
  %19 = getelementptr inbounds nuw %struct.VmdVideoContext, ptr %18, i32 0, i32 0
  store ptr %17, ptr %19, align 8, !tbaa !32
  %20 = load ptr, ptr %3, align 8, !tbaa !4
  %21 = getelementptr inbounds nuw %struct.AVCodecContext, ptr %20, i32 0, i32 23
  store i32 11, ptr %21, align 8, !tbaa !35
  %22 = load ptr, ptr %4, align 8, !tbaa !29
  %23 = getelementptr inbounds nuw %struct.VmdVideoContext, ptr %22, i32 0, i32 0
  %24 = load ptr, ptr %23, align 8, !tbaa !32
  %25 = getelementptr inbounds nuw %struct.AVCodecContext, ptr %24, i32 0, i32 13
  %26 = load i32, ptr %25, align 8, !tbaa !36
  %27 = icmp ne i32 %26, 816
  br i1 %27, label %28, label %32

28:                                               ; preds = %1
  %29 = load ptr, ptr %4, align 8, !tbaa !29
  %30 = getelementptr inbounds nuw %struct.VmdVideoContext, ptr %29, i32 0, i32 0
  %31 = load ptr, ptr %30, align 8, !tbaa !32
  call void (ptr, i32, ptr, ...) @av_log(ptr noundef %31, i32 noundef 16, ptr noundef @.str.2, i32 noundef 816)
  store i32 -1094995529, ptr %2, align 4
  store i32 1, ptr %13, align 4
  br label %137

32:                                               ; preds = %1
  %33 = load ptr, ptr %3, align 8, !tbaa !4
  %34 = getelementptr inbounds nuw %struct.AVCodecContext, ptr %33, i32 0, i32 12
  %35 = load ptr, ptr %34, align 8, !tbaa !37
  store ptr %35, ptr %11, align 8, !tbaa !38
  %36 = load ptr, ptr %11, align 8, !tbaa !38
  %37 = getelementptr inbounds i8, ptr %36, i64 800
  %38 = load i32, ptr %37, align 1, !tbaa !39
  %39 = load ptr, ptr %4, align 8, !tbaa !29
  %40 = getelementptr inbounds nuw %struct.VmdVideoContext, ptr %39, i32 0, i32 6
  store i32 %38, ptr %40, align 8, !tbaa !40
  %41 = load ptr, ptr %4, align 8, !tbaa !29
  %42 = getelementptr inbounds nuw %struct.VmdVideoContext, ptr %41, i32 0, i32 6
  %43 = load i32, ptr %42, align 8, !tbaa !40
  %44 = icmp ne i32 %43, 0
  br i1 %44, label %45, label %59

45:                                               ; preds = %32
  %46 = load ptr, ptr %4, align 8, !tbaa !29
  %47 = getelementptr inbounds nuw %struct.VmdVideoContext, ptr %46, i32 0, i32 6
  %48 = load i32, ptr %47, align 8, !tbaa !40
  %49 = sext i32 %48 to i64
  %50 = call noalias ptr @av_malloc(i64 noundef %49)
  %51 = load ptr, ptr %4, align 8, !tbaa !29
  %52 = getelementptr inbounds nuw %struct.VmdVideoContext, ptr %51, i32 0, i32 5
  store ptr %50, ptr %52, align 8, !tbaa !41
  %53 = load ptr, ptr %4, align 8, !tbaa !29
  %54 = getelementptr inbounds nuw %struct.VmdVideoContext, ptr %53, i32 0, i32 5
  %55 = load ptr, ptr %54, align 8, !tbaa !41
  %56 = icmp ne ptr %55, null
  br i1 %56, label %58, label %57

57:                                               ; preds = %45
  store i32 -12, ptr %2, align 4
  store i32 1, ptr %13, align 4
  br label %137

58:                                               ; preds = %45
  br label %59

59:                                               ; preds = %58, %32
  %60 = load ptr, ptr %11, align 8, !tbaa !38
  %61 = getelementptr inbounds i8, ptr %60, i64 28
  store ptr %61, ptr %12, align 8, !tbaa !38
  %62 = load ptr, ptr %4, align 8, !tbaa !29
  %63 = getelementptr inbounds nuw %struct.VmdVideoContext, ptr %62, i32 0, i32 4
  %64 = getelementptr inbounds [1024 x i8], ptr %63, i64 0, i64 0
  store ptr %64, ptr %6, align 8, !tbaa !42
  store i32 0, ptr %5, align 4, !tbaa !31
  br label %65

65:                                               ; preds = %124, %59
  %66 = load i32, ptr %5, align 4, !tbaa !31
  %67 = icmp slt i32 %66, 256
  br i1 %67, label %68, label %127

68:                                               ; preds = %65
  %69 = load ptr, ptr %12, align 8, !tbaa !38
  %70 = load i32, ptr %7, align 4, !tbaa !31
  %71 = add nsw i32 %70, 1
  store i32 %71, ptr %7, align 4, !tbaa !31
  %72 = sext i32 %70 to i64
  %73 = getelementptr inbounds i8, ptr %69, i64 %72
  %74 = load i8, ptr %73, align 1, !tbaa !39
  %75 = zext i8 %74 to i32
  %76 = mul nsw i32 %75, 4
  %77 = trunc i32 %76 to i8
  store i8 %77, ptr %8, align 1, !tbaa !39
  %78 = load ptr, ptr %12, align 8, !tbaa !38
  %79 = load i32, ptr %7, align 4, !tbaa !31
  %80 = add nsw i32 %79, 1
  store i32 %80, ptr %7, align 4, !tbaa !31
  %81 = sext i32 %79 to i64
  %82 = getelementptr inbounds i8, ptr %78, i64 %81
  %83 = load i8, ptr %82, align 1, !tbaa !39
  %84 = zext i8 %83 to i32
  %85 = mul nsw i32 %84, 4
  %86 = trunc i32 %85 to i8
  store i8 %86, ptr %9, align 1, !tbaa !39
  %87 = load ptr, ptr %12, align 8, !tbaa !38
  %88 = load i32, ptr %7, align 4, !tbaa !31
  %89 = add nsw i32 %88, 1
  store i32 %89, ptr %7, align 4, !tbaa !31
  %90 = sext i32 %88 to i64
  %91 = getelementptr inbounds i8, ptr %87, i64 %90
  %92 = load i8, ptr %91, align 1, !tbaa !39
  %93 = zext i8 %92 to i32
  %94 = mul nsw i32 %93, 4
  %95 = trunc i32 %94 to i8
  store i8 %95, ptr %10, align 1, !tbaa !39
  %96 = load i8, ptr %8, align 1, !tbaa !39
  %97 = zext i8 %96 to i32
  %98 = shl i32 %97, 16
  %99 = or i32 -16777216, %98
  %100 = load i8, ptr %9, align 1, !tbaa !39
  %101 = zext i8 %100 to i32
  %102 = shl i32 %101, 8
  %103 = or i32 %99, %102
  %104 = load i8, ptr %10, align 1, !tbaa !39
  %105 = zext i8 %104 to i32
  %106 = or i32 %103, %105
  %107 = load ptr, ptr %6, align 8, !tbaa !42
  %108 = load i32, ptr %5, align 4, !tbaa !31
  %109 = sext i32 %108 to i64
  %110 = getelementptr inbounds i32, ptr %107, i64 %109
  store i32 %106, ptr %110, align 4, !tbaa !31
  %111 = load ptr, ptr %6, align 8, !tbaa !42
  %112 = load i32, ptr %5, align 4, !tbaa !31
  %113 = sext i32 %112 to i64
  %114 = getelementptr inbounds i32, ptr %111, i64 %113
  %115 = load i32, ptr %114, align 4, !tbaa !31
  %116 = lshr i32 %115, 6
  %117 = and i32 %116, 197379
  %118 = load ptr, ptr %6, align 8, !tbaa !42
  %119 = load i32, ptr %5, align 4, !tbaa !31
  %120 = sext i32 %119 to i64
  %121 = getelementptr inbounds i32, ptr %118, i64 %120
  %122 = load i32, ptr %121, align 4, !tbaa !31
  %123 = or i32 %122, %117
  store i32 %123, ptr %121, align 4, !tbaa !31
  br label %124

124:                                              ; preds = %68
  %125 = load i32, ptr %5, align 4, !tbaa !31
  %126 = add nsw i32 %125, 1
  store i32 %126, ptr %5, align 4, !tbaa !31
  br label %65, !llvm.loop !43

127:                                              ; preds = %65
  %128 = call ptr @av_frame_alloc()
  %129 = load ptr, ptr %4, align 8, !tbaa !29
  %130 = getelementptr inbounds nuw %struct.VmdVideoContext, ptr %129, i32 0, i32 1
  store ptr %128, ptr %130, align 8, !tbaa !45
  %131 = load ptr, ptr %4, align 8, !tbaa !29
  %132 = getelementptr inbounds nuw %struct.VmdVideoContext, ptr %131, i32 0, i32 1
  %133 = load ptr, ptr %132, align 8, !tbaa !45
  %134 = icmp ne ptr %133, null
  br i1 %134, label %136, label %135

135:                                              ; preds = %127
  store i32 -12, ptr %2, align 4
  store i32 1, ptr %13, align 4
  br label %137

136:                                              ; preds = %127
  store i32 0, ptr %2, align 4
  store i32 1, ptr %13, align 4
  br label %137

137:                                              ; preds = %136, %135, %57, %28
  call void @llvm.lifetime.end.p0(i64 8, ptr %12) #8
  call void @llvm.lifetime.end.p0(i64 8, ptr %11) #8
  call void @llvm.lifetime.end.p0(i64 1, ptr %10) #8
  call void @llvm.lifetime.end.p0(i64 1, ptr %9) #8
  call void @llvm.lifetime.end.p0(i64 1, ptr %8) #8
  call void @llvm.lifetime.end.p0(i64 4, ptr %7) #8
  call void @llvm.lifetime.end.p0(i64 8, ptr %6) #8
  call void @llvm.lifetime.end.p0(i64 4, ptr %5) #8
  call void @llvm.lifetime.end.p0(i64 8, ptr %4) #8
  %138 = load i32, ptr %2, align 4
  ret i32 %138
}