; Function Attrs: cold nounwind optsize uwtable
define internal range(i32 -1094995529, 1) i32 @vmdvideo_decode_init(ptr noundef %0) #0 {
  %2 = getelementptr inbounds nuw i8, ptr %0, i64 32
  %3 = load ptr, ptr %2, align 8, !tbaa !4
  store ptr %0, ptr %3, align 8, !tbaa !27
  %4 = getelementptr inbounds nuw i8, ptr %0, i64 136
  store i32 11, ptr %4, align 8, !tbaa !31
  %5 = getelementptr inbounds nuw i8, ptr %0, i64 80
  %6 = load i32, ptr %5, align 8, !tbaa !32
  %.not = icmp eq i32 %6, 816
  br i1 %.not, label %8, label %7

7:                                                ; preds = %1
  tail call void (ptr, i32, ptr, ...) @av_log(ptr noundef nonnull %0, i32 noundef 16, ptr noundef nonnull @.str.2, i32 noundef 816) #8
  br label %46

8:                                                ; preds = %1
  %9 = getelementptr inbounds nuw i8, ptr %0, i64 72
  %10 = load ptr, ptr %9, align 8, !tbaa !33
  %11 = getelementptr inbounds nuw i8, ptr %10, i64 800
  %12 = load i32, ptr %11, align 1, !tbaa !34
  %13 = getelementptr inbounds nuw i8, ptr %3, i64 1064
  store i32 %12, ptr %13, align 8, !tbaa !35
  %.not37 = icmp eq i32 %12, 0
  br i1 %.not37, label %18, label %14

14:                                               ; preds = %8
  %15 = sext i32 %12 to i64
  %16 = tail call noalias ptr @av_malloc(i64 noundef %15) #8
  %17 = getelementptr inbounds nuw i8, ptr %3, i64 1056
  store ptr %16, ptr %17, align 8, !tbaa !36
  %.not38 = icmp eq ptr %16, null
  br i1 %.not38, label %46, label %18

18:                                               ; preds = %14, %8
  %19 = getelementptr inbounds nuw i8, ptr %10, i64 28
  %20 = getelementptr inbounds nuw i8, ptr %3, i64 28
  br label %21

21:                                               ; preds = %18, %21
  %indvars.iv42 = phi i64 [ 0, %18 ], [ %indvars.iv.next43, %21 ]
  %indvars.iv = phi i64 [ 0, %18 ], [ %indvars.iv.next, %21 ]
  %22 = getelementptr inbounds nuw i8, ptr %19, i64 %indvars.iv42
  %23 = load i8, ptr %22, align 1, !tbaa !34
  %24 = shl i8 %23, 2
  %25 = getelementptr i8, ptr %22, i64 1
  %26 = load i8, ptr %25, align 1, !tbaa !34
  %27 = shl i8 %26, 2
  %indvars.iv.next43 = add nuw nsw i64 %indvars.iv42, 3
  %28 = getelementptr inbounds nuw i8, ptr %22, i64 2
  %29 = load i8, ptr %28, align 1, !tbaa !34
  %30 = shl i8 %29, 2
  %31 = zext i8 %24 to i32
  %32 = shl nuw nsw i32 %31, 16
  %33 = zext i8 %27 to i32
  %34 = shl nuw nsw i32 %33, 8
  %35 = or disjoint i32 %34, %32
  %36 = zext i8 %30 to i32
  %37 = or disjoint i32 %35, %36
  %38 = getelementptr inbounds nuw i32, ptr %20, i64 %indvars.iv
  %39 = lshr i32 %37, 6
  %40 = and i32 %39, 197379
  %41 = or disjoint i32 %37, %40
  %42 = or disjoint i32 %41, -16777216
  store i32 %42, ptr %38, align 4, !tbaa !37
  %indvars.iv.next = add nuw nsw i64 %indvars.iv, 1
  %exitcond.not = icmp eq i64 %indvars.iv.next, 256
  br i1 %exitcond.not, label %43, label %21, !llvm.loop !38

43:                                               ; preds = %21
  %44 = tail call ptr @av_frame_alloc() #8
  %45 = getelementptr inbounds nuw i8, ptr %3, i64 8
  store ptr %44, ptr %45, align 8, !tbaa !40
  %.not39 = icmp eq ptr %44, null
  %. = select i1 %.not39, i32 -12, i32 0
  br label %46

46:                                               ; preds = %43, %14, %7
  %.0 = phi i32 [ -1094995529, %7 ], [ -12, %14 ], [ %., %43 ]
  ret i32 %.0
}